; Function Attrs: nounwind uwtable
define ptr @l_Lean_Elab_Tactic_BVDecide_Frontend_Normalize_bv__concat__extract___lambda__2___boxed(ptr noundef readonly captures(none) %0) local_unnamed_addr #0 {
  %2 = load ptr, ptr %0, align 8, !tbaa !4
  %3 = getelementptr inbounds nuw i8, ptr %0, i64 8
  %4 = load ptr, ptr %3, align 8, !tbaa !4
  %5 = getelementptr inbounds nuw i8, ptr %0, i64 16
  %6 = load ptr, ptr %5, align 8, !tbaa !4
  %7 = getelementptr inbounds nuw i8, ptr %0, i64 24
  %8 = load ptr, ptr %7, align 8, !tbaa !4
  %9 = getelementptr inbounds nuw i8, ptr %0, i64 32
  %10 = load ptr, ptr %9, align 8, !tbaa !4
  %11 = getelementptr inbounds nuw i8, ptr %0, i64 40
  %12 = load ptr, ptr %11, align 8, !tbaa !4
  %13 = getelementptr inbounds nuw i8, ptr %0, i64 48
  %14 = load ptr, ptr %13, align 8, !tbaa !4
  %15 = getelementptr inbounds nuw i8, ptr %0, i64 56
  %16 = load ptr, ptr %15, align 8, !tbaa !4
  %17 = getelementptr inbounds nuw i8, ptr %0, i64 64
  %18 = load ptr, ptr %17, align 8, !tbaa !4
  %19 = getelementptr inbounds nuw i8, ptr %0, i64 72
  %20 = load ptr, ptr %19, align 8, !tbaa !4
  %21 = getelementptr inbounds nuw i8, ptr %0, i64 80
  %22 = load ptr, ptr %21, align 8, !tbaa !4
  %23 = getelementptr inbounds nuw i8, ptr %0, i64 88
  %24 = load ptr, ptr %23, align 8, !tbaa !4
  %25 = getelementptr inbounds nuw i8, ptr %0, i64 96
  %26 = load ptr, ptr %25, align 8, !tbaa !4
  %27 = getelementptr inbounds nuw i8, ptr %0, i64 104
  %28 = load ptr, ptr %27, align 8, !tbaa !4
  %29 = getelementptr inbounds nuw i8, ptr %0, i64 112
  %30 = load ptr, ptr %29, align 8, !tbaa !4
  %31 = getelementptr inbounds nuw i8, ptr %0, i64 120
  %32 = load ptr, ptr %31, align 8, !tbaa !4
  %33 = getelementptr inbounds nuw i8, ptr %0, i64 128
  %34 = load ptr, ptr %33, align 8, !tbaa !4
  %35 = getelementptr inbounds nuw i8, ptr %0, i64 136
  %36 = load ptr, ptr %35, align 8, !tbaa !4
  %37 = getelementptr inbounds nuw i8, ptr %0, i64 144
  %38 = load ptr, ptr %37, align 8, !tbaa !4
  %39 = tail call ptr @l_Lean_Elab_Tactic_BVDecide_Frontend_Normalize_bv__concat__extract___lambda__2(ptr noundef %2, ptr noundef %4, ptr noundef %6, ptr noundef %8, ptr noundef %10, ptr noundef %12, ptr noundef %14, ptr noundef %16, ptr noundef %18, ptr noundef %20, ptr poison, ptr poison, ptr poison, ptr poison, ptr noundef %30, ptr noundef %32, ptr noundef %34, ptr noundef %36, ptr noundef %38)
  %40 = ptrtoint ptr %28 to i64
  %41 = and i64 %40, 1
  %.not = icmp eq i64 %41, 0
  br i1 %.not, label %42, label %lean_dec.exit53

42:                                               ; preds = %1
  %43 = load i32, ptr %28, align 4, !tbaa !8
  %44 = icmp sgt i32 %43, 1
  br i1 %44, label %45, label %47, !prof !11

45:                                               ; preds = %42
  %46 = add nsw i32 %43, -1
  store i32 %46, ptr %28, align 4, !tbaa !8
  br label %lean_dec.exit53

47:                                               ; preds = %42
  %.not.i = icmp eq i32 %43, 0
  br i1 %.not.i, label %lean_dec.exit53, label %48

48:                                               ; preds = %47
  tail call void @lean_dec_ref_cold(ptr noundef nonnull %28) #5
  br label %lean_dec.exit53

lean_dec.exit53:                                  ; preds = %48, %47, %45, %1
  %49 = ptrtoint ptr %26 to i64
  %50 = and i64 %49, 1
  %.not68 = icmp eq i64 %50, 0
  br i1 %.not68, label %51, label %lean_dec.exit52

51:                                               ; preds = %lean_dec.exit53
  %52 = load i32, ptr %26, align 4, !tbaa !8
  %53 = icmp sgt i32 %52, 1
  br i1 %53, label %54, label %56, !prof !11

54:                                               ; preds = %51
  %55 = add nsw i32 %52, -1
  store i32 %55, ptr %26, align 4, !tbaa !8
  br label %lean_dec.exit52

56:                                               ; preds = %51
  %.not.i54 = icmp eq i32 %52, 0
  br i1 %.not.i54, label %lean_dec.exit52, label %57

57:                                               ; preds = %56
  tail call void @lean_dec_ref_cold(ptr noundef nonnull %26) #5
  br label %lean_dec.exit52

lean_dec.exit52:                                  ; preds = %57, %56, %54, %lean_dec.exit53
  %58 = ptrtoint ptr %24 to i64
  %59 = and i64 %58, 1
  %.not69 = icmp eq i64 %59, 0
  br i1 %.not69, label %60, label %lean_dec.exit51

60:                                               ; preds = %lean_dec.exit52
  %61 = load i32, ptr %24, align 4, !tbaa !8
  %62 = icmp sgt i32 %61, 1
  br i1 %62, label %63, label %65, !prof !11

63:                                               ; preds = %60
  %64 = add nsw i32 %61, -1
  store i32 %64, ptr %24, align 4, !tbaa !8
  br label %lean_dec.exit51

65:                                               ; preds = %60
  %.not.i56 = icmp eq i32 %61, 0
  br i1 %.not.i56, label %lean_dec.exit51, label %66

66:                                               ; preds = %65
  tail call void @lean_dec_ref_cold(ptr noundef nonnull %24) #5
  br label %lean_dec.exit51

lean_dec.exit51:                                  ; preds = %66, %65, %63, %lean_dec.exit52
  %67 = ptrtoint ptr %22 to i64
  %68 = and i64 %67, 1
  %.not70 = icmp eq i64 %68, 0
  br i1 %.not70, label %69, label %lean_dec.exit50

69:                                               ; preds = %lean_dec.exit51
  %70 = load i32, ptr %22, align 4, !tbaa !8
  %71 = icmp sgt i32 %70, 1
  br i1 %71, label %72, label %74, !prof !11

72:                                               ; preds = %69
  %73 = add nsw i32 %70, -1
  store i32 %73, ptr %22, align 4, !tbaa !8
  br label %lean_dec.exit50

74:                                               ; preds = %69
  %.not.i58 = icmp eq i32 %70, 0
  br i1 %.not.i58, label %lean_dec.exit50, label %75

75:                                               ; preds = %74
  tail call void @lean_dec_ref_cold(ptr noundef nonnull %22) #5
  br label %lean_dec.exit50

lean_dec.exit50:                                  ; preds = %75, %74, %72, %lean_dec.exit51
  %76 = ptrtoint ptr %20 to i64
  %77 = and i64 %76, 1
  %.not71 = icmp eq i64 %77, 0
  br i1 %.not71, label %78, label %lean_dec.exit49

78:                                               ; preds = %lean_dec.exit50
  %79 = load i32, ptr %20, align 4, !tbaa !8
  %80 = icmp sgt i32 %79, 1
  br i1 %80, label %81, label %83, !prof !11

81:                                               ; preds = %78
  %82 = add nsw i32 %79, -1
  store i32 %82, ptr %20, align 4, !tbaa !8
  br label %lean_dec.exit49

83:                                               ; preds = %78
  %.not.i60 = icmp eq i32 %79, 0
  br i1 %.not.i60, label %lean_dec.exit49, label %84

84:                                               ; preds = %83
  tail call void @lean_dec_ref_cold(ptr noundef nonnull %20) #5
  br label %lean_dec.exit49

lean_dec.exit49:                                  ; preds = %84, %83, %81, %lean_dec.exit50
  %85 = ptrtoint ptr %18 to i64
  %86 = and i64 %85, 1
  %.not72 = icmp eq i64 %86, 0
  br i1 %.not72, label %87, label %lean_dec.exit48

87:                                               ; preds = %lean_dec.exit49
  %88 = load i32, ptr %18, align 4, !tbaa !8
  %89 = icmp sgt i32 %88, 1
  br i1 %89, label %90, label %92, !prof !11

90:                                               ; preds = %87
  %91 = add nsw i32 %88, -1
  store i32 %91, ptr %18, align 4, !tbaa !8
  br label %lean_dec.exit48

92:                                               ; preds = %87
  %.not.i62 = icmp eq i32 %88, 0
  br i1 %.not.i62, label %lean_dec.exit48, label %93

93:                                               ; preds = %92
  tail call void @lean_dec_ref_cold(ptr noundef nonnull %18) #5
  br label %lean_dec.exit48

lean_dec.exit48:                                  ; preds = %93, %92, %90, %lean_dec.exit49
  %94 = ptrtoint ptr %4 to i64
  %95 = and i64 %94, 1
  %.not73 = icmp eq i64 %95, 0
  br i1 %.not73, label %96, label %lean_dec.exit47

96:                                               ; preds = %lean_dec.exit48
  %97 = load i32, ptr %4, align 4, !tbaa !8
  %98 = icmp sgt i32 %97, 1
  br i1 %98, label %99, label %101, !prof !11

99:                                               ; preds = %96
  %100 = add nsw i32 %97, -1
  store i32 %100, ptr %4, align 4, !tbaa !8
  br label %lean_dec.exit47

101:                                              ; preds = %96
  %.not.i64 = icmp eq i32 %97, 0
  br i1 %.not.i64, label %lean_dec.exit47, label %102

102:                                              ; preds = %101
  tail call void @lean_dec_ref_cold(ptr noundef nonnull %4) #5
  br label %lean_dec.exit47

lean_dec.exit47:                                  ; preds = %102, %101, %99, %lean_dec.exit48
  %103 = ptrtoint ptr %2 to i64
  %104 = and i64 %103, 1
  %.not74 = icmp eq i64 %104, 0
  br i1 %.not74, label %105, label %lean_dec.exit

105:                                              ; preds = %lean_dec.exit47
  %106 = load i32, ptr %2, align 4, !tbaa !8
  %107 = icmp sgt i32 %106, 1
  br i1 %107, label %108, label %110, !prof !11

108:                                              ; preds = %105
  %109 = add nsw i32 %106, -1
  store i32 %109, ptr %2, align 4, !tbaa !8
  br label %lean_dec.exit

110:                                              ; preds = %105
  %.not.i66 = icmp eq i32 %106, 0
  br i1 %.not.i66, label %lean_dec.exit, label %111

111:                                              ; preds = %110
  tail call void @lean_dec_ref_cold(ptr noundef nonnull %2) #5
  br label %lean_dec.exit

lean_dec.exit:                                    ; preds = %111, %110, %108, %lean_dec.exit47
  ret ptr %39
}